Certificate:
    Data:
        Version: 3 (0x2)
        Serial Number: 3 (0x3)
        Signature Algorithm: sha256WithRSAEncryption
        Issuer: C=IT, ST=Italy, O=Cybersec-CA, OU=Cybersec-CA Intermediate, CN=Cybersec-CA Ltd/emailAddress=none
        Validity
            Not Before: Jul  1 20:37:28 2020 GMT
            Not After : Jul 11 20:37:28 2021 GMT
        Subject: C=IT, ST=Italy, L=Naples, O=Mad Labs, OU=Mad Labs IT, CN=Mad Labs/emailAddress=none
        Subject Public Key Info:
            Public Key Algorithm: rsaEncryption
                RSA Public-Key: (2048 bit)
                Modulus:
                    00:bc:3a:26:9c:84:18:b2:60:1b:6b:56:76:45:81:
                    2c:26:7d:f0:cf:96:42:bb:4c:19:92:cf:89:6d:b9:
                    61:ef:cd:16:c4:84:6a:5a:23:58:7f:28:b9:97:4a:
                    7a:43:4f:95:77:82:fb:47:bb:3b:a3:b4:1c:ce:61:
                    ad:a6:f4:65:59:e1:d9:c1:6f:1e:ea:39:ba:01:0c:
                    e6:09:68:4a:31:fc:e5:dd:79:1b:5d:b6:f9:86:de:
                    99:73:b7:51:00:b4:d8:07:20:02:4b:1b:5f:2b:fa:
                    e0:fd:59:f7:67:3e:28:f5:8a:e3:f3:68:4a:d9:1e:
                    61:87:88:3c:06:e1:b7:b7:ad:4a:9a:ee:a7:37:83:
                    d9:4a:55:f1:9a:b4:ed:0e:e4:08:c4:fe:38:60:da:
                    50:b3:ef:ee:92:8a:c2:f6:32:5a:17:60:52:18:e0:
                    a0:fa:32:b8:7c:64:68:83:b1:f9:37:b8:25:ed:3f:
                    78:cc:6c:61:36:b2:f9:a8:e5:01:46:2c:e7:59:75:
                    52:82:7e:a0:d1:9d:38:22:44:f8:8a:e5:6b:90:b6:
                    9d:ce:d3:31:dd:e8:a2:9c:0d:39:00:82:5b:aa:f7:
                    90:cf:b8:38:d3:8c:eb:b9:db:eb:45:78:11:06:6e:
                    fa:d5:27:f7:05:d4:6f:7e:b7:2e:2c:cf:b0:5c:d3:
                    cd:c7
                Exponent: 65537 (0x10001)
        X509v3 extensions:
            X509v3 Basic Constraints: 
                CA:FALSE
            Netscape Cert Type: 
                SSL Server
            X509v3 Subject Alternative Name: 
                DNS:localhost, IP Address:127.0.0.1
            Netscape Comment: 
                OpenSSL Generated Server Certificate
            X509v3 Subject Key Identifier: 
                9E:74:92:1B:59:24:48:32:52:23:A8:EC:32:60:00:28:47:51:35:CE
            X509v3 Authority Key Identifier: 
                keyid:75:72:88:68:96:CC:DD:D6:2C:22:6E:61:5A:38:91:CB:BE:8E:96:7B
                DirName:/C=IT/ST=Italy/L=Rome/O=Cybersec-CA/OU=Cybersec-CA/CN=Cybersec CA Ltd/emailAddress=none
                serial:01

            X509v3 Key Usage: critical
                Digital Signature, Key Encipherment
            X509v3 Extended Key Usage: 
                TLS Web Server Authentication
    Signature Algorithm: sha256WithRSAEncryption
         b3:83:2a:f5:45:90:f8:ee:f2:e2:d4:14:bd:0c:5d:4e:96:61:
         af:37:e0:8a:e9:70:c1:4f:83:f7:23:c2:2d:a3:3f:1c:8b:26:
         f1:d8:2c:ea:c8:7e:0f:fe:a4:69:82:8f:ff:73:39:2d:9a:13:
         35:92:7d:28:90:24:f5:c8:77:c0:d3:a6:86:fd:ed:24:4a:9b:
         ee:c2:9e:80:55:75:97:78:62:52:f7:0f:10:70:03:ad:a4:76:
         5d:8e:95:de:69:96:87:5b:32:1b:be:99:0c:b2:53:bd:60:4e:
         61:00:01:21:39:55:51:17:cb:c7:c0:24:00:51:76:3e:b1:9c:
         50:53:53:f5:5e:ef:dc:c6:08:16:d3:36:a8:b2:0e:bc:30:ea:
         e1:35:c6:58:dc:2c:b5:82:a8:e0:28:10:91:90:e7:0d:8c:50:
         95:8d:84:a4:3b:a4:f3:61:10:85:9e:42:77:5d:a3:f1:57:e9:
         0b:9b:1a:a0:c8:a0:60:cd:d6:be:a5:c3:9d:25:c6:ca:8c:69:
         3d:a2:d4:1d:59:11:8f:b5:1a:89:01:e1:65:56:e2:4d:b6:02:
         42:a2:79:7c:6a:ff:18:ab:75:0e:48:fd:2f:d8:3a:0b:58:79:
         11:69:20:d5:bc:af:99:2e:84:f3:54:d9:7c:aa:39:8a:e7:14:
         fb:59:15:46
-----BEGIN CERTIFICATE-----
MIIE8DCCA9igAwIBAgIBAzANBgkqhkiG9w0BAQsFADCBhTELMAkGA1UEBhMCSVQx
DjAMBgNVBAgMBUl0YWx5MRQwEgYDVQQKDAtDeWJlcnNlYy1DQTEhMB8GA1UECwwY
Q3liZXJzZWMtQ0EgSW50ZXJtZWRpYXRlMRgwFgYDVQQDDA9DeWJlcnNlYy1DQSBM
dGQxEzARBgkqhkiG9w0BCQEWBG5vbmUwHhcNMjAwNzAxMjAzNzI4WhcNMjEwNzEx
MjAzNzI4WjB/MQswCQYDVQQGEwJJVDEOMAwGA1UECAwFSXRhbHkxDzANBgNVBAcM
Bk5hcGxlczERMA8GA1UECgwITWFkIExhYnMxFDASBgNVBAsMC01hZCBMYWJzIElU
MREwDwYDVQQDDAhNYWQgTGFiczETMBEGCSqGSIb3DQEJARYEbm9uZTCCASIwDQYJ
KoZIhvcNAQEBBQADggEPADCCAQoCggEBALw6JpyEGLJgG2tWdkWBLCZ98M+WQrtM
GZLPiW25Ye/NFsSEalojWH8ouZdKekNPlXeC+0e7O6O0HM5hrab0ZVnh2cFvHuo5
ugEM5gloSjH85d15G122+YbemXO3UQC02AcgAksbXyv64P1Z92c+KPWK4/NoStke
YYeIPAbht7etSprupzeD2UpV8Zq07Q7kCMT+OGDaULPv7pKKwvYyWhdgUhjgoPoy
uHxkaIOx+Te4Je0/eMxsYTay+ajlAUYs51l1UoJ+oNGdOCJE+Irla5C2nc7TMd3o
opwNOQCCW6r3kM+4ONOM67nb60V4EQZu+tUn9wXUb363LizPsFzTzccCAwEAAaOC
AW4wggFqMAkGA1UdEwQCMAAwEQYJYIZIAYb4QgEBBAQDAgZAMBoGA1UdEQQTMBGC
CWxvY2FsaG9zdIcEfwAAATAzBglghkgBhvhCAQ0EJhYkT3BlblNTTCBHZW5lcmF0
ZWQgU2VydmVyIENlcnRpZmljYXRlMB0GA1UdDgQWBBSedJIbWSRIMlIjqOwyYAAo
R1E1zjCBtAYDVR0jBIGsMIGpgBR1coholszd1iwibmFaOJHLvo6We6GBjaSBijCB
hzELMAkGA1UEBhMCSVQxDjAMBgNVBAgMBUl0YWx5MQ0wCwYDVQQHDARSb21lMRQw
EgYDVQQKDAtDeWJlcnNlYy1DQTEUMBIGA1UECwwLQ3liZXJzZWMtQ0ExGDAWBgNV
BAMMD0N5YmVyc2VjIENBIEx0ZDETMBEGCSqGSIb3DQEJARYEbm9uZYIBATAOBgNV
HQ8BAf8EBAMCBaAwEwYDVR0lBAwwCgYIKwYBBQUHAwEwDQYJKoZIhvcNAQELBQAD
ggEBALODKvVFkPju8uLUFL0MXU6WYa834IrpcMFPg/cjwi2jPxyLJvHYLOrIfg/+
pGmCj/9zOS2aEzWSfSiQJPXId8DTpob97SRKm+7CnoBVdZd4YlL3DxBwA62kdl2O
ld5plodbMhu+mQyyU71gTmEAASE5VVEXy8fAJABRdj6xnFBTU/Ve79zGCBbTNqiy
Drww6uE1xljcLLWCqOAoEJGQ5w2MUJWNhKQ7pPNhEIWeQnddo/FX6QubGqDIoGDN
1r6lw50lxsqMaT2i1B1ZEY+1GokB4WVW4k22AkKieXxq/xirdQ5I/S/YOgtYeRFp
INW8r5kuhPNU2XyqOYrnFPtZFUY=
-----END CERTIFICATE-----
