Certificate:
    Data:
        Version: 3 (0x2)
        Serial Number: 1 (0x1)
        Signature Algorithm: sha256WithRSAEncryption
        Issuer: C=IT, ST=Italy, L=Rome, O=Cybersec-CA, OU=Cybersec-CA, CN=Cybersec CA Ltd/emailAddress=none
        Validity
            Not Before: Jul  1 19:48:55 2020 GMT
            Not After : Jul 11 19:48:55 2021 GMT
        Subject: C=IT, ST=Italy, O=Cybersec-CA, OU=Cybersec-CA Intermediate, CN=Cybersec-CA Ltd/emailAddress=none
        Subject Public Key Info:
            Public Key Algorithm: rsaEncryption
                RSA Public-Key: (2048 bit)
                Modulus:
                    00:d8:df:6b:85:02:a5:97:6f:6c:e3:16:50:c9:c5:
                    72:d6:0f:65:59:db:a0:86:22:5a:40:89:11:f4:39:
                    aa:cc:64:ac:82:97:d1:06:00:13:a2:1e:57:86:b5:
                    50:d9:0a:8d:97:7d:73:33:99:76:92:29:a5:90:6a:
                    09:bd:2b:2e:32:12:53:27:c8:0a:05:22:bc:12:39:
                    6f:11:a8:18:4e:14:4c:1d:01:08:7e:5a:2d:66:0f:
                    de:68:5d:d8:e7:be:d8:f4:eb:8a:c9:2d:ec:39:4c:
                    4b:87:bc:57:24:1d:cf:99:ab:0a:f6:3d:8c:06:b4:
                    7f:6e:ed:e6:49:70:56:1e:3d:32:df:1f:74:1b:2e:
                    34:7f:fb:49:b8:ac:55:f1:bf:a2:e7:e2:0b:f2:94:
                    29:39:77:aa:1e:60:8e:c9:8c:46:0f:e3:cf:41:d3:
                    5a:3e:cb:87:03:4a:e2:01:f0:84:1f:d5:c9:cd:9f:
                    54:25:ee:40:45:3c:ca:bb:a5:3f:20:45:1a:1a:af:
                    42:9f:44:22:98:b6:34:2c:58:33:b0:cf:e3:d9:f9:
                    db:31:d7:c9:9a:72:0d:c8:7f:76:b9:5f:58:f7:b6:
                    31:71:48:b0:73:ec:7f:11:0a:8c:7f:9f:cb:1d:27:
                    04:d5:5f:43:a5:0c:45:18:19:a9:9a:08:ec:0a:2b:
                    e0:7b
                Exponent: 65537 (0x10001)
        X509v3 extensions:
            X509v3 Subject Key Identifier: 
                75:72:88:68:96:CC:DD:D6:2C:22:6E:61:5A:38:91:CB:BE:8E:96:7B
            X509v3 Authority Key Identifier: 
                keyid:20:A4:8D:33:1F:03:B7:50:5E:4F:DE:16:C7:1D:7F:92:EA:18:1A:21

            X509v3 Basic Constraints: critical
                CA:TRUE, pathlen:0
            X509v3 Key Usage: critical
                Digital Signature, Certificate Sign, CRL Sign
    Signature Algorithm: sha256WithRSAEncryption
         32:aa:ff:c5:15:c1:82:d4:c4:67:d9:2c:2c:35:51:f8:df:a3:
         2e:0b:22:72:f7:97:3a:2d:71:49:ee:07:bc:21:e5:2c:c5:48:
         18:48:06:b4:c0:1b:54:1a:34:b5:5b:f4:bc:77:91:78:86:76:
         ec:04:05:28:4c:d3:21:2a:76:6c:07:8b:b0:1e:eb:25:eb:45:
         a9:2f:d5:90:8c:a5:ff:33:bc:61:d0:b9:36:01:50:fa:51:da:
         af:a7:ef:47:4d:a3:cd:3c:52:da:b4:a1:52:60:54:18:c8:c6:
         09:d3:0f:76:a6:5b:5e:c8:94:41:7e:28:ce:64:ea:0a:1a:39:
         8f:96:5c:74:57:a8:59:45:ed:7a:2d:25:ee:28:c8:88:4c:a5:
         71:43:cc:a9:c6:e8:2a:86:7e:58:9c:e2:ec:d0:03:b9:3c:1e:
         74:67:12:7b:80:c3:fc:b2:6b:80:c6:ef:72:f5:d8:e3:b8:1c:
         73:7c:83:0f:1c:45:96:05:26:9e:bc:4c:75:ee:98:93:75:59:
         3b:ae:e2:48:13:0e:8e:26:8d:c5:2d:8c:db:64:5e:6a:9f:de:
         1b:f8:6b:f7:ec:f0:22:3b:42:17:a8:2e:8d:6d:82:88:98:b5:
         94:f1:32:04:bf:22:45:f0:8a:dd:af:c6:ef:92:0b:ff:91:42:
         c5:2e:26:3b
-----BEGIN CERTIFICATE-----
MIID7zCCAtegAwIBAgIBATANBgkqhkiG9w0BAQsFADCBhzELMAkGA1UEBhMCSVQx
DjAMBgNVBAgMBUl0YWx5MQ0wCwYDVQQHDARSb21lMRQwEgYDVQQKDAtDeWJlcnNl
Yy1DQTEUMBIGA1UECwwLQ3liZXJzZWMtQ0ExGDAWBgNVBAMMD0N5YmVyc2VjIENB
IEx0ZDETMBEGCSqGSIb3DQEJARYEbm9uZTAeFw0yMDA3MDExOTQ4NTVaFw0yMTA3
MTExOTQ4NTVaMIGFMQswCQYDVQQGEwJJVDEOMAwGA1UECAwFSXRhbHkxFDASBgNV
BAoMC0N5YmVyc2VjLUNBMSEwHwYDVQQLDBhDeWJlcnNlYy1DQSBJbnRlcm1lZGlh
dGUxGDAWBgNVBAMMD0N5YmVyc2VjLUNBIEx0ZDETMBEGCSqGSIb3DQEJARYEbm9u
ZTCCASIwDQYJKoZIhvcNAQEBBQADggEPADCCAQoCggEBANjfa4UCpZdvbOMWUMnF
ctYPZVnboIYiWkCJEfQ5qsxkrIKX0QYAE6IeV4a1UNkKjZd9czOZdpIppZBqCb0r
LjISUyfICgUivBI5bxGoGE4UTB0BCH5aLWYP3mhd2Oe+2PTriskt7DlMS4e8VyQd
z5mrCvY9jAa0f27t5klwVh49Mt8fdBsuNH/7SbisVfG/oufiC/KUKTl3qh5gjsmM
Rg/jz0HTWj7LhwNK4gHwhB/Vyc2fVCXuQEU8yrulPyBFGhqvQp9EIpi2NCxYM7DP
49n52zHXyZpyDch/drlfWPe2MXFIsHPsfxEKjH+fyx0nBNVfQ6UMRRgZqZoI7Aor
4HsCAwEAAaNmMGQwHQYDVR0OBBYEFHVyiGiWzN3WLCJuYVo4kcu+jpZ7MB8GA1Ud
IwQYMBaAFCCkjTMfA7dQXk/eFscdf5LqGBohMBIGA1UdEwEB/wQIMAYBAf8CAQAw
DgYDVR0PAQH/BAQDAgGGMA0GCSqGSIb3DQEBCwUAA4IBAQAyqv/FFcGC1MRn2Sws
NVH436MuCyJy95c6LXFJ7ge8IeUsxUgYSAa0wBtUGjS1W/S8d5F4hnbsBAUoTNMh
KnZsB4uwHusl60WpL9WQjKX/M7xh0Lk2AVD6Udqvp+9HTaPNPFLatKFSYFQYyMYJ
0w92plteyJRBfijOZOoKGjmPllx0V6hZRe16LSXuKMiITKVxQ8ypxugqhn5YnOLs
0AO5PB50ZxJ7gMP8smuAxu9y9djjuBxzfIMPHEWWBSaevEx17piTdVk7ruJIEw6O
Jo3FLYzbZF5qn94b+Gv37PAiO0IXqC6NbYKImLWU8TIEvyJF8Irdr8bvkgv/kULF
LiY7
-----END CERTIFICATE-----
