Certificate:
    Data:
        Version: 3 (0x2)
        Serial Number: 4 (0x4)
        Signature Algorithm: sha256WithRSAEncryption
        Issuer: C=IT, ST=Italy, O=Cybersec-CA, OU=Cybersec-CA Intermediate, CN=Cybersec-CA Ltd/emailAddress=none
        Validity
            Not Before: Jul  1 20:39:42 2020 GMT
            Not After : Jul 11 20:39:42 2021 GMT
        Subject: C=IT, ST=Italy, L=Naples, O=DP3T Main Ltd, OU=DP3T Main IT, CN=DP3T/emailAddress=none
        Subject Public Key Info:
            Public Key Algorithm: rsaEncryption
                RSA Public-Key: (2048 bit)
                Modulus:
                    00:ac:47:64:a9:5b:64:fa:59:5d:d7:de:77:dc:52:
                    a2:0e:07:13:37:45:d9:90:27:77:d3:88:88:5a:44:
                    ce:9e:ec:58:65:57:c8:4f:77:19:2a:1d:14:86:04:
                    6d:d6:f2:a4:20:3c:2d:d7:6b:a9:9a:28:eb:12:a8:
                    4f:76:07:4b:89:ef:1a:18:cf:ff:9e:a6:bd:6e:6c:
                    1b:37:ee:01:76:7a:06:3c:08:a9:01:c4:3f:2b:1f:
                    62:8c:c2:22:ff:b6:68:8d:74:8d:fe:ec:dc:37:fd:
                    7f:8f:ef:ec:2c:ad:7e:9a:26:ee:c8:bb:82:c0:2f:
                    7f:c5:c6:b8:bd:44:60:41:c4:63:c7:a4:26:c0:73:
                    4e:9c:1f:d6:fd:4d:44:0f:14:ff:88:91:aa:1e:22:
                    36:5a:13:9e:e5:1f:5a:c1:2e:3f:af:4f:0a:46:3a:
                    60:03:be:1d:5a:b7:48:8d:d7:b3:f9:11:92:63:10:
                    0b:22:27:b6:46:d0:1e:73:44:1f:b8:23:f7:84:d0:
                    37:23:5b:b2:af:5e:d8:b8:5e:18:d6:47:ae:59:a7:
                    71:b9:2f:66:d9:b2:27:e3:a1:f1:46:c4:e5:f1:a2:
                    98:6c:45:26:03:ef:a4:a1:2f:02:90:b6:7f:c5:2a:
                    c3:f1:44:e1:c7:d2:41:a8:1c:99:ae:15:63:e5:e3:
                    f2:df
                Exponent: 65537 (0x10001)
        X509v3 extensions:
            X509v3 Basic Constraints: 
                CA:FALSE
            Netscape Cert Type: 
                SSL Server
            X509v3 Subject Alternative Name: 
                DNS:localhost, IP Address:127.0.0.1
            Netscape Comment: 
                OpenSSL Generated Server Certificate
            X509v3 Subject Key Identifier: 
                A6:68:80:A2:E9:52:FE:55:CE:7E:F5:D0:17:9C:44:10:A4:EA:9F:A0
            X509v3 Authority Key Identifier: 
                keyid:75:72:88:68:96:CC:DD:D6:2C:22:6E:61:5A:38:91:CB:BE:8E:96:7B
                DirName:/C=IT/ST=Italy/L=Rome/O=Cybersec-CA/OU=Cybersec-CA/CN=Cybersec CA Ltd/emailAddress=none
                serial:01

            X509v3 Key Usage: critical
                Digital Signature, Key Encipherment
            X509v3 Extended Key Usage: 
                TLS Web Server Authentication
    Signature Algorithm: sha256WithRSAEncryption
         8d:65:1c:26:d6:77:79:a7:27:27:10:a1:60:80:ba:89:af:4f:
         38:df:f6:c1:a2:48:b2:7d:b6:25:21:29:50:95:3c:40:b5:de:
         c8:0d:53:d9:92:4f:e7:13:c5:34:2e:0b:69:05:e0:08:de:49:
         dd:2e:3f:da:d5:f0:91:9f:40:e5:b6:3a:a5:63:2b:bb:12:55:
         fe:4c:b0:93:9f:f2:d7:ce:49:8e:13:cc:a3:79:15:19:89:77:
         1d:ee:97:22:97:37:e9:9b:49:0e:7b:75:66:e2:86:3f:a1:2c:
         8a:14:48:dd:93:74:75:f5:c9:d6:88:fa:20:71:09:d3:d2:de:
         b1:75:39:3e:9f:95:65:5f:36:12:b4:73:5b:d6:4c:8f:cd:13:
         1d:21:72:4f:e5:f9:2d:6b:dc:6a:21:f7:48:80:e3:75:ec:07:
         f8:07:79:1a:0d:5f:33:ca:55:81:6c:c4:ff:76:bf:84:27:db:
         1a:65:ee:fa:8e:26:e4:ca:8c:ae:f1:91:91:f3:34:df:c6:78:
         c0:ba:59:f6:31:de:d9:98:b4:60:a3:12:7f:5b:0e:75:a4:76:
         7d:34:cb:11:57:94:2d:3f:fc:9b:06:b5:41:28:54:46:b7:3e:
         ab:68:7e:57:1f:ad:00:79:ef:46:83:32:a0:f7:bd:2a:c2:50:
         72:2d:bc:9c
-----BEGIN CERTIFICATE-----
MIIE8zCCA9ugAwIBAgIBBDANBgkqhkiG9w0BAQsFADCBhTELMAkGA1UEBhMCSVQx
DjAMBgNVBAgMBUl0YWx5MRQwEgYDVQQKDAtDeWJlcnNlYy1DQTEhMB8GA1UECwwY
Q3liZXJzZWMtQ0EgSW50ZXJtZWRpYXRlMRgwFgYDVQQDDA9DeWJlcnNlYy1DQSBM
dGQxEzARBgkqhkiG9w0BCQEWBG5vbmUwHhcNMjAwNzAxMjAzOTQyWhcNMjEwNzEx
MjAzOTQyWjCBgTELMAkGA1UEBhMCSVQxDjAMBgNVBAgMBUl0YWx5MQ8wDQYDVQQH
DAZOYXBsZXMxFjAUBgNVBAoMDURQM1QgTWFpbiBMdGQxFTATBgNVBAsMDERQM1Qg
TWFpbiBJVDENMAsGA1UEAwwERFAzVDETMBEGCSqGSIb3DQEJARYEbm9uZTCCASIw
DQYJKoZIhvcNAQEBBQADggEPADCCAQoCggEBAKxHZKlbZPpZXdfed9xSog4HEzdF
2ZAnd9OIiFpEzp7sWGVXyE93GSodFIYEbdbypCA8LddrqZoo6xKoT3YHS4nvGhjP
/56mvW5sGzfuAXZ6BjwIqQHEPysfYozCIv+2aI10jf7s3Df9f4/v7Cytfpom7si7
gsAvf8XGuL1EYEHEY8ekJsBzTpwf1v1NRA8U/4iRqh4iNloTnuUfWsEuP69PCkY6
YAO+HVq3SI3Xs/kRkmMQCyIntkbQHnNEH7gj94TQNyNbsq9e2LheGNZHrlmncbkv
ZtmyJ+Oh8UbE5fGimGxFJgPvpKEvApC2f8Uqw/FE4cfSQagcma4VY+Xj8t8CAwEA
AaOCAW4wggFqMAkGA1UdEwQCMAAwEQYJYIZIAYb4QgEBBAQDAgZAMBoGA1UdEQQT
MBGCCWxvY2FsaG9zdIcEfwAAATAzBglghkgBhvhCAQ0EJhYkT3BlblNTTCBHZW5l
cmF0ZWQgU2VydmVyIENlcnRpZmljYXRlMB0GA1UdDgQWBBSmaICi6VL+Vc5+9dAX
nEQQpOqfoDCBtAYDVR0jBIGsMIGpgBR1coholszd1iwibmFaOJHLvo6We6GBjaSB
ijCBhzELMAkGA1UEBhMCSVQxDjAMBgNVBAgMBUl0YWx5MQ0wCwYDVQQHDARSb21l
MRQwEgYDVQQKDAtDeWJlcnNlYy1DQTEUMBIGA1UECwwLQ3liZXJzZWMtQ0ExGDAW
BgNVBAMMD0N5YmVyc2VjIENBIEx0ZDETMBEGCSqGSIb3DQEJARYEbm9uZYIBATAO
BgNVHQ8BAf8EBAMCBaAwEwYDVR0lBAwwCgYIKwYBBQUHAwEwDQYJKoZIhvcNAQEL
BQADggEBAI1lHCbWd3mnJycQoWCAuomvTzjf9sGiSLJ9tiUhKVCVPEC13sgNU9mS
T+cTxTQuC2kF4AjeSd0uP9rV8JGfQOW2OqVjK7sSVf5MsJOf8tfOSY4TzKN5FRmJ
dx3ulyKXN+mbSQ57dWbihj+hLIoUSN2TdHX1ydaI+iBxCdPS3rF1OT6flWVfNhK0
c1vWTI/NEx0hck/l+S1r3Goh90iA43XsB/gHeRoNXzPKVYFsxP92v4Qn2xpl7vqO
JuTKjK7xkZHzNN/GeMC6WfYx3tmYtGCjEn9bDnWkdn00yxFXlC0//JsGtUEoVEa3
PqtoflcfrQB570aDMqD3vSrCUHItvJw=
-----END CERTIFICATE-----
